target datalayout = "e-m:e-p270:32:32-p271:32:32-p272:64:64-i64:64-i128:128-f80:128-n8:16:32:64-S128"
target triple = "x86_64-unknown-linux-gnu"

%"class.re2::CharClassBuilder" = type { i32, i32, i32, %"class.std::set" }
%"class.std::set" = type { %"class.std::_Rb_tree" }
%"class.std::_Rb_tree" = type { %"struct.std::_Rb_tree<re2::RuneRange, re2::RuneRange, std::_Identity<re2::RuneRange>, re2::RuneRangeLess>::_Rb_tree_impl" }
%"struct.std::_Rb_tree<re2::RuneRange, re2::RuneRange, std::_Identity<re2::RuneRange>, re2::RuneRangeLess>::_Rb_tree_impl" = type { %"struct.std::_Rb_tree_key_compare", %"struct.std::_Rb_tree_header" }
%"struct.std::_Rb_tree_key_compare" = type { %"struct.re2::RuneRangeLess" }
%"struct.re2::RuneRangeLess" = type { i8 }
%"struct.std::_Rb_tree_header" = type { %"struct.std::_Rb_tree_node_base", i64 }
%"struct.std::_Rb_tree_node_base" = type { i32, ptr, ptr, ptr }
%"struct.std::_Rb_tree_const_iterator" = type { ptr }
%"struct.re2::RuneRange" = type { i32, i32 }
%"class.re2::CharClass" = type <{ i8, [3 x i8], i32, ptr, i32, [4 x i8] }>
%"struct.std::_Rb_tree_node" = type { %"struct.std::_Rb_tree_node_base", %"struct.__gnu_cxx::__aligned_membuf" }
%"struct.__gnu_cxx::__aligned_membuf" = type { [8 x i8] }

; Function Attrs: mustprogress nounwind uwtable
define linkonce_odr noundef ptr @_ZNK9__gnu_cxx16__aligned_membufIN3re29RuneRangeEE7_M_addrEv(ptr noundef nonnull align 4 dereferenceable(8) %this) #0 comdat align 2 {
entry:
  %this.addr = alloca ptr, align 8
  store ptr %this, ptr %this.addr, align 8
  %this1 = load ptr, ptr %this.addr, align 8
  %_M_storage = getelementptr inbounds %"struct.__gnu_cxx::__aligned_membuf", ptr %this1, i32 0, i32 0
  ret ptr %_M_storage
}

; Function Attrs: mustprogress nounwind uwtable
define linkonce_odr void @_ZNSt23_Rb_tree_const_iteratorIN3re29RuneRangeEEC2EPKSt18_Rb_tree_node_base(ptr noundef nonnull align 8 dereferenceable(8) %this, ptr noundef %__x) unnamed_addr #0 comdat align 2 {
entry:
  %this.addr = alloca ptr, align 8
  %__x.addr = alloca ptr, align 8
  store ptr %this, ptr %this.addr, align 8
  store ptr %__x, ptr %__x.addr, align 8
  %this1 = load ptr, ptr %this.addr, align 8
  %_M_node = getelementptr inbounds %"struct.std::_Rb_tree_const_iterator", ptr %this1, i32 0, i32 0
  %0 = load ptr, ptr %__x.addr, align 8
  store ptr %0, ptr %_M_node, align 8
  ret void
}

; Function Attrs: mustprogress nounwind uwtable
define linkonce_odr noundef ptr @_ZNK9__gnu_cxx16__aligned_membufIN3re29RuneRangeEE6_M_ptrEv(ptr noundef nonnull align 4 dereferenceable(8) %this) #0 comdat align 2 {
entry:
  %this.addr = alloca ptr, align 8
  store ptr %this, ptr %this.addr, align 8
  %this1 = load ptr, ptr %this.addr, align 8
  %call = call noundef ptr @_ZNK9__gnu_cxx16__aligned_membufIN3re29RuneRangeEE7_M_addrEv(ptr noundef nonnull align 4 dereferenceable(8) %this1) #16
  ret ptr %call
}

; Function Attrs: mustprogress nounwind uwtable
define linkonce_odr ptr @_ZNKSt8_Rb_treeIN3re29RuneRangeES1_St9_IdentityIS1_ENS0_13RuneRangeLessESaIS1_EE3endEv(ptr noundef nonnull align 8 dereferenceable(48) %this) #0 comdat align 2 {
entry:
  %retval = alloca %"struct.std::_Rb_tree_const_iterator", align 8
  %this.addr = alloca ptr, align 8
  store ptr %this, ptr %this.addr, align 8
  %this1 = load ptr, ptr %this.addr, align 8
  %_M_impl = getelementptr inbounds %"class.std::_Rb_tree", ptr %this1, i32 0, i32 0
  %add.ptr = getelementptr inbounds i8, ptr %_M_impl, i64 8
  %_M_header = getelementptr inbounds %"struct.std::_Rb_tree_header", ptr %add.ptr, i32 0, i32 0
  call void @_ZNSt23_Rb_tree_const_iteratorIN3re29RuneRangeEEC2EPKSt18_Rb_tree_node_base(ptr noundef nonnull align 8 dereferenceable(8) %retval, ptr noundef %_M_header) #16
  %coerce.dive = getelementptr inbounds %"struct.std::_Rb_tree_const_iterator", ptr %retval, i32 0, i32 0
  %0 = load ptr, ptr %coerce.dive, align 8
  ret ptr %0
}

; Function Attrs: mustprogress nounwind uwtable
define linkonce_odr ptr @_ZNKSt8_Rb_treeIN3re29RuneRangeES1_St9_IdentityIS1_ENS0_13RuneRangeLessESaIS1_EE5beginEv(ptr noundef nonnull align 8 dereferenceable(48) %this) #0 comdat align 2 {
entry:
  %retval = alloca %"struct.std::_Rb_tree_const_iterator", align 8
  %this.addr = alloca ptr, align 8
  store ptr %this, ptr %this.addr, align 8
  %this1 = load ptr, ptr %this.addr, align 8
  %_M_impl = getelementptr inbounds %"class.std::_Rb_tree", ptr %this1, i32 0, i32 0
  %add.ptr = getelementptr inbounds i8, ptr %_M_impl, i64 8
  %_M_header = getelementptr inbounds %"struct.std::_Rb_tree_header", ptr %add.ptr, i32 0, i32 0
  %_M_left = getelementptr inbounds %"struct.std::_Rb_tree_node_base", ptr %_M_header, i32 0, i32 2
  %0 = load ptr, ptr %_M_left, align 8
  call void @_ZNSt23_Rb_tree_const_iteratorIN3re29RuneRangeEEC2EPKSt18_Rb_tree_node_base(ptr noundef nonnull align 8 dereferenceable(8) %retval, ptr noundef %0) #16
  %coerce.dive = getelementptr inbounds %"struct.std::_Rb_tree_const_iterator", ptr %retval, i32 0, i32 0
  %1 = load ptr, ptr %coerce.dive, align 8
  ret ptr %1
}

; Function Attrs: mustprogress nounwind uwtable
define linkonce_odr noundef ptr @_ZNKSt13_Rb_tree_nodeIN3re29RuneRangeEE9_M_valptrEv(ptr noundef nonnull align 8 dereferenceable(40) %this) #0 comdat align 2 {
entry:
  %this.addr = alloca ptr, align 8
  store ptr %this, ptr %this.addr, align 8
  %this1 = load ptr, ptr %this.addr, align 8
  %_M_storage = getelementptr inbounds %"struct.std::_Rb_tree_node", ptr %this1, i32 0, i32 1
  %call = call noundef ptr @_ZNK9__gnu_cxx16__aligned_membufIN3re29RuneRangeEE6_M_ptrEv(ptr noundef nonnull align 4 dereferenceable(8) %_M_storage) #16
  ret ptr %call
}

; Function Attrs: mustprogress nounwind uwtable
define linkonce_odr ptr @_ZNKSt3setIN3re29RuneRangeENS0_13RuneRangeLessESaIS1_EE3endEv(ptr noundef nonnull align 8 dereferenceable(48) %this) #0 comdat align 2 {
entry:
  %retval = alloca %"struct.std::_Rb_tree_const_iterator", align 8
  %this.addr = alloca ptr, align 8
  store ptr %this, ptr %this.addr, align 8
  %this1 = load ptr, ptr %this.addr, align 8
  %_M_t = getelementptr inbounds %"class.std::set", ptr %this1, i32 0, i32 0
  %call = call ptr @_ZNKSt8_Rb_treeIN3re29RuneRangeES1_St9_IdentityIS1_ENS0_13RuneRangeLessESaIS1_EE3endEv(ptr noundef nonnull align 8 dereferenceable(48) %_M_t) #16
  %coerce.dive = getelementptr inbounds %"struct.std::_Rb_tree_const_iterator", ptr %retval, i32 0, i32 0
  store ptr %call, ptr %coerce.dive, align 8
  %coerce.dive2 = getelementptr inbounds %"struct.std::_Rb_tree_const_iterator", ptr %retval, i32 0, i32 0
  %0 = load ptr, ptr %coerce.dive2, align 8
  ret ptr %0
}

; Function Attrs: mustprogress nounwind uwtable
define linkonce_odr ptr @_ZNKSt3setIN3re29RuneRangeENS0_13RuneRangeLessESaIS1_EE5beginEv(ptr noundef nonnull align 8 dereferenceable(48) %this) #0 comdat align 2 {
entry:
  %retval = alloca %"struct.std::_Rb_tree_const_iterator", align 8
  %this.addr = alloca ptr, align 8
  store ptr %this, ptr %this.addr, align 8
  %this1 = load ptr, ptr %this.addr, align 8
  %_M_t = getelementptr inbounds %"class.std::set", ptr %this1, i32 0, i32 0
  %call = call ptr @_ZNKSt8_Rb_treeIN3re29RuneRangeES1_St9_IdentityIS1_ENS0_13RuneRangeLessESaIS1_EE5beginEv(ptr noundef nonnull align 8 dereferenceable(48) %_M_t) #16
  %coerce.dive = getelementptr inbounds %"struct.std::_Rb_tree_const_iterator", ptr %retval, i32 0, i32 0
  store ptr %call, ptr %coerce.dive, align 8
  %coerce.dive2 = getelementptr inbounds %"struct.std::_Rb_tree_const_iterator", ptr %retval, i32 0, i32 0
  %0 = load ptr, ptr %coerce.dive2, align 8
  ret ptr %0
}

; Function Attrs: mustprogress nounwind uwtable
define linkonce_odr noundef i64 @_ZNKSt8_Rb_treeIN3re29RuneRangeES1_St9_IdentityIS1_ENS0_13RuneRangeLessESaIS1_EE4sizeEv(ptr noundef nonnull align 8 dereferenceable(48) %this) #0 comdat align 2 {
entry:
  %this.addr = alloca ptr, align 8
  store ptr %this, ptr %this.addr, align 8
  %this1 = load ptr, ptr %this.addr, align 8
  %_M_impl = getelementptr inbounds %"class.std::_Rb_tree", ptr %this1, i32 0, i32 0
  %add.ptr = getelementptr inbounds i8, ptr %_M_impl, i64 8
  %_M_node_count = getelementptr inbounds %"struct.std::_Rb_tree_header", ptr %add.ptr, i32 0, i32 1
  %0 = load i64, ptr %_M_node_count, align 8
  ret i64 %0
}

; Function Attrs: mustprogress nounwind uwtable
define noundef zeroext i1 @_ZN3re216CharClassBuilder10FoldsASCIIEv(ptr noundef nonnull align 8 dereferenceable(64) %this) #0 align 2 {
entry:
  %this.addr = alloca ptr, align 8
  store ptr %this, ptr %this.addr, align 8
  %this1 = load ptr, ptr %this.addr, align 8
  %upper_ = getelementptr inbounds %"class.re2::CharClassBuilder", ptr %this1, i32 0, i32 0
  %0 = load i32, ptr %upper_, align 8
  %lower_ = getelementptr inbounds %"class.re2::CharClassBuilder", ptr %this1, i32 0, i32 1
  %1 = load i32, ptr %lower_, align 4
  %xor = xor i32 %0, %1
  %and = and i32 %xor, 67108863
  %cmp = icmp eq i32 %and, 0
  ret i1 %cmp
}

; Function Attrs: mustprogress nounwind uwtable
define linkonce_odr noundef nonnull align 8 dereferenceable(8) ptr @_ZNSt23_Rb_tree_const_iteratorIN3re29RuneRangeEEppEv(ptr noundef nonnull align 8 dereferenceable(8) %this) #0 comdat align 2 {
entry:
  %this.addr = alloca ptr, align 8
  store ptr %this, ptr %this.addr, align 8
  %this1 = load ptr, ptr %this.addr, align 8
  %_M_node = getelementptr inbounds %"struct.std::_Rb_tree_const_iterator", ptr %this1, i32 0, i32 0
  %0 = load ptr, ptr %_M_node, align 8
  %call = call noundef ptr @_ZSt18_Rb_tree_incrementPKSt18_Rb_tree_node_base(ptr noundef %0) #20
  %_M_node2 = getelementptr inbounds %"struct.std::_Rb_tree_const_iterator", ptr %this1, i32 0, i32 0
  store ptr %call, ptr %_M_node2, align 8
  ret ptr %this1
}

; Function Attrs: mustprogress nounwind uwtable
define linkonce_odr noundef nonnull align 4 dereferenceable(8) ptr @_ZNKSt23_Rb_tree_const_iteratorIN3re29RuneRangeEEdeEv(ptr noundef nonnull align 8 dereferenceable(8) %this) #0 comdat align 2 {
entry:
  %this.addr = alloca ptr, align 8
  store ptr %this, ptr %this.addr, align 8
  %this1 = load ptr, ptr %this.addr, align 8
  %_M_node = getelementptr inbounds %"struct.std::_Rb_tree_const_iterator", ptr %this1, i32 0, i32 0
  %0 = load ptr, ptr %_M_node, align 8
  %call = call noundef ptr @_ZNKSt13_Rb_tree_nodeIN3re29RuneRangeEE9_M_valptrEv(ptr noundef nonnull align 8 dereferenceable(40) %0)
  ret ptr %call
}

; Function Attrs: mustprogress nounwind uwtable
define linkonce_odr noundef zeroext i1 @_ZStneRKSt23_Rb_tree_const_iteratorIN3re29RuneRangeEES4_(ptr noundef nonnull align 8 dereferenceable(8) %__x, ptr noundef nonnull align 8 dereferenceable(8) %__y) #0 comdat {
entry:
  %__x.addr = alloca ptr, align 8
  %__y.addr = alloca ptr, align 8
  store ptr %__x, ptr %__x.addr, align 8
  store ptr %__y, ptr %__y.addr, align 8
  %0 = load ptr, ptr %__x.addr, align 8
  %_M_node = getelementptr inbounds %"struct.std::_Rb_tree_const_iterator", ptr %0, i32 0, i32 0
  %1 = load ptr, ptr %_M_node, align 8
  %2 = load ptr, ptr %__y.addr, align 8
  %_M_node1 = getelementptr inbounds %"struct.std::_Rb_tree_const_iterator", ptr %2, i32 0, i32 0
  %3 = load ptr, ptr %_M_node1, align 8
  %cmp = icmp ne ptr %1, %3
  ret i1 %cmp
}

; Function Attrs: mustprogress nounwind uwtable
define linkonce_odr ptr @_ZN3re216CharClassBuilder3endEv(ptr noundef nonnull align 8 dereferenceable(64) %this) #0 comdat align 2 {
entry:
  %retval = alloca %"struct.std::_Rb_tree_const_iterator", align 8
  %this.addr = alloca ptr, align 8
  store ptr %this, ptr %this.addr, align 8
  %this1 = load ptr, ptr %this.addr, align 8
  %ranges_ = getelementptr inbounds %"class.re2::CharClassBuilder", ptr %this1, i32 0, i32 3
  %call = call ptr @_ZNKSt3setIN3re29RuneRangeENS0_13RuneRangeLessESaIS1_EE3endEv(ptr noundef nonnull align 8 dereferenceable(48) %ranges_) #16
  %coerce.dive = getelementptr inbounds %"struct.std::_Rb_tree_const_iterator", ptr %retval, i32 0, i32 0
  store ptr %call, ptr %coerce.dive, align 8
  %coerce.dive2 = getelementptr inbounds %"struct.std::_Rb_tree_const_iterator", ptr %retval, i32 0, i32 0
  %0 = load ptr, ptr %coerce.dive2, align 8
  ret ptr %0
}

; Function Attrs: mustprogress nounwind uwtable
define linkonce_odr ptr @_ZN3re216CharClassBuilder5beginEv(ptr noundef nonnull align 8 dereferenceable(64) %this) #0 comdat align 2 {
entry:
  %retval = alloca %"struct.std::_Rb_tree_const_iterator", align 8
  %this.addr = alloca ptr, align 8
  store ptr %this, ptr %this.addr, align 8
  %this1 = load ptr, ptr %this.addr, align 8
  %ranges_ = getelementptr inbounds %"class.re2::CharClassBuilder", ptr %this1, i32 0, i32 3
  %call = call ptr @_ZNKSt3setIN3re29RuneRangeENS0_13RuneRangeLessESaIS1_EE5beginEv(ptr noundef nonnull align 8 dereferenceable(48) %ranges_) #16
  %coerce.dive = getelementptr inbounds %"struct.std::_Rb_tree_const_iterator", ptr %retval, i32 0, i32 0
  store ptr %call, ptr %coerce.dive, align 8
  %coerce.dive2 = getelementptr inbounds %"struct.std::_Rb_tree_const_iterator", ptr %retval, i32 0, i32 0
  %0 = load ptr, ptr %coerce.dive2, align 8
  ret ptr %0
}

; Function Attrs: mustprogress uwtable
define noundef ptr @_ZN3re29CharClass3NewEm(i64 noundef %maxranges) #3 align 2 {
entry:
  %maxranges.addr = alloca i64, align 8
  %cc = alloca ptr, align 8
  %data = alloca ptr, align 8
  store i64 %maxranges, ptr %maxranges.addr, align 8
  %0 = load i64, ptr %maxranges.addr, align 8
  %mul = mul i64 %0, 8
  %add = add i64 24, %mul
  %call = call noalias noundef nonnull ptr @_Znam(i64 noundef %add) #19
  store ptr %call, ptr %data, align 8
  %1 = load ptr, ptr %data, align 8
  store ptr %1, ptr %cc, align 8
  %2 = load ptr, ptr %data, align 8
  %add.ptr = getelementptr inbounds i8, ptr %2, i64 24
  %3 = load ptr, ptr %cc, align 8
  %ranges_ = getelementptr inbounds %"class.re2::CharClass", ptr %3, i32 0, i32 3
  store ptr %add.ptr, ptr %ranges_, align 8
  %4 = load ptr, ptr %cc, align 8
  %nranges_ = getelementptr inbounds %"class.re2::CharClass", ptr %4, i32 0, i32 4
  store i32 0, ptr %nranges_, align 8
  %5 = load ptr, ptr %cc, align 8
  %folds_ascii_ = getelementptr inbounds %"class.re2::CharClass", ptr %5, i32 0, i32 0
  store i8 0, ptr %folds_ascii_, align 8
  %6 = load ptr, ptr %cc, align 8
  %nrunes_ = getelementptr inbounds %"class.re2::CharClass", ptr %6, i32 0, i32 2
  store i32 0, ptr %nrunes_, align 4
  %7 = load ptr, ptr %cc, align 8
  ret ptr %7
}

; Function Attrs: mustprogress nounwind uwtable
define linkonce_odr noundef i64 @_ZNKSt3setIN3re29RuneRangeENS0_13RuneRangeLessESaIS1_EE4sizeEv(ptr noundef nonnull align 8 dereferenceable(48) %this) #0 comdat align 2 {
entry:
  %this.addr = alloca ptr, align 8
  store ptr %this, ptr %this.addr, align 8
  %this1 = load ptr, ptr %this.addr, align 8
  %_M_t = getelementptr inbounds %"class.std::set", ptr %this1, i32 0, i32 0
  %call = call noundef i64 @_ZNKSt8_Rb_treeIN3re29RuneRangeES1_St9_IdentityIS1_ENS0_13RuneRangeLessESaIS1_EE4sizeEv(ptr noundef nonnull align 8 dereferenceable(48) %_M_t) #16
  ret i64 %call
}

; Function Attrs: mustprogress uwtable
define noundef ptr @_ZN3re216CharClassBuilder12GetCharClassEv(ptr noundef nonnull align 8 dereferenceable(64) %this) #3 align 2 {
entry:
  %this.addr = alloca ptr, align 8
  %cc = alloca ptr, align 8
  %n = alloca i32, align 4
  %it = alloca %"struct.std::_Rb_tree_const_iterator", align 8
  %ref.tmp = alloca %"struct.std::_Rb_tree_const_iterator", align 8
  store ptr %this, ptr %this.addr, align 8
  %this1 = load ptr, ptr %this.addr, align 8
  %ranges_ = getelementptr inbounds %"class.re2::CharClassBuilder", ptr %this1, i32 0, i32 3
  %call = call noundef i64 @_ZNKSt3setIN3re29RuneRangeENS0_13RuneRangeLessESaIS1_EE4sizeEv(ptr noundef nonnull align 8 dereferenceable(48) %ranges_) #16
  %call2 = call noundef ptr @_ZN3re29CharClass3NewEm(i64 noundef %call)
  store ptr %call2, ptr %cc, align 8
  store i32 0, ptr %n, align 4
  %call3 = call ptr @_ZN3re216CharClassBuilder5beginEv(ptr noundef nonnull align 8 dereferenceable(64) %this1)
  %coerce.dive = getelementptr inbounds %"struct.std::_Rb_tree_const_iterator", ptr %it, i32 0, i32 0
  store ptr %call3, ptr %coerce.dive, align 8
  br label %for.cond

for.cond:                                         ; preds = %for.inc, %entry
  %call4 = call ptr @_ZN3re216CharClassBuilder3endEv(ptr noundef nonnull align 8 dereferenceable(64) %this1)
  %coerce.dive5 = getelementptr inbounds %"struct.std::_Rb_tree_const_iterator", ptr %ref.tmp, i32 0, i32 0
  store ptr %call4, ptr %coerce.dive5, align 8
  %call6 = call noundef zeroext i1 @_ZStneRKSt23_Rb_tree_const_iteratorIN3re29RuneRangeEES4_(ptr noundef nonnull align 8 dereferenceable(8) %it, ptr noundef nonnull align 8 dereferenceable(8) %ref.tmp) #16
  br i1 %call6, label %for.body, label %for.end

for.body:                                         ; preds = %for.cond
  %call7 = call noundef nonnull align 4 dereferenceable(8) ptr @_ZNKSt23_Rb_tree_const_iteratorIN3re29RuneRangeEEdeEv(ptr noundef nonnull align 8 dereferenceable(8) %it) #16
  %0 = load ptr, ptr %cc, align 8
  %ranges_8 = getelementptr inbounds %"class.re2::CharClass", ptr %0, i32 0, i32 3
  %1 = load ptr, ptr %ranges_8, align 8
  %2 = load i32, ptr %n, align 4
  %inc = add nsw i32 %2, 1
  store i32 %inc, ptr %n, align 4
  %idxprom = sext i32 %2 to i64
  %arrayidx = getelementptr inbounds %"struct.re2::RuneRange", ptr %1, i64 %idxprom
  call void @llvm.memcpy.p0.p0.i64(ptr align 4 %arrayidx, ptr align 4 %call7, i64 8, i1 false)
  br label %for.inc

for.inc:                                          ; preds = %for.body
  %call9 = call noundef nonnull align 8 dereferenceable(8) ptr @_ZNSt23_Rb_tree_const_iteratorIN3re29RuneRangeEEppEv(ptr noundef nonnull align 8 dereferenceable(8) %it) #16
  br label %for.cond, !llvm.loop !26

for.end:                                          ; preds = %for.cond
  %3 = load i32, ptr %n, align 4
  %4 = load ptr, ptr %cc, align 8
  %nranges_ = getelementptr inbounds %"class.re2::CharClass", ptr %4, i32 0, i32 4
  store i32 %3, ptr %nranges_, align 8
  %nrunes_ = getelementptr inbounds %"class.re2::CharClassBuilder", ptr %this1, i32 0, i32 2
  %5 = load i32, ptr %nrunes_, align 8
  %6 = load ptr, ptr %cc, align 8
  %nrunes_10 = getelementptr inbounds %"class.re2::CharClass", ptr %6, i32 0, i32 2
  store i32 %5, ptr %nrunes_10, align 4
  %call11 = call noundef zeroext i1 @_ZN3re216CharClassBuilder10FoldsASCIIEv(ptr noundef nonnull align 8 dereferenceable(64) %this1)
  %7 = load ptr, ptr %cc, align 8
  %folds_ascii_ = getelementptr inbounds %"class.re2::CharClass", ptr %7, i32 0, i32 0
  %frombool = zext i1 %call11 to i8
  store i8 %frombool, ptr %folds_ascii_, align 8
  %8 = load ptr, ptr %cc, align 8
  ret ptr %8
}