; Function Attrs: mustprogress uwtable
define noundef nonnull ptr @_ZN3re216CharClassBuilder12GetCharClassEv(ptr noundef nonnull readonly align 8 dereferenceable(64) %this) local_unnamed_addr #7 align 2 {
entry:
  %_M_node_count.i.i = getelementptr inbounds i8, ptr %this, i64 56
  %0 = load i64, ptr %_M_node_count.i.i, align 8
  %mul.i = shl i64 %0, 3
  %add.i = add i64 %mul.i, 24
  %call.i = tail call noalias noundef nonnull ptr @_Znam(i64 noundef %add.i) #29
  %add.ptr.i = getelementptr inbounds i8, ptr %call.i, i64 24
  %ranges_.i = getelementptr inbounds i8, ptr %call.i, i64 8
  store ptr %add.ptr.i, ptr %ranges_.i, align 8
  %nranges_.i = getelementptr inbounds i8, ptr %call.i, i64 16
  store i32 0, ptr %nranges_.i, align 8
  store i8 0, ptr %call.i, align 8
  %nrunes_.i = getelementptr inbounds i8, ptr %call.i, i64 4
  store i32 0, ptr %nrunes_.i, align 4
  %_M_left.i.i.i = getelementptr inbounds i8, ptr %this, i64 40
  %1 = load ptr, ptr %_M_left.i.i.i, align 8
  %add.ptr.i.i.i = getelementptr inbounds i8, ptr %this, i64 24
  %cmp.i.not10 = icmp eq ptr %1, %add.ptr.i.i.i
  br i1 %cmp.i.not10, label %for.end, label %for.body

for.body:                                         ; preds = %entry, %for.body
  %indvars.iv = phi i64 [ %indvars.iv.next, %for.body ], [ 0, %entry ]
  %it.sroa.0.011 = phi ptr [ %call.i6, %for.body ], [ %1, %entry ]
  %_M_storage.i.i = getelementptr inbounds i8, ptr %it.sroa.0.011, i64 32
  %2 = load ptr, ptr %ranges_.i, align 8
  %indvars.iv.next = add nuw nsw i64 %indvars.iv, 1
  %arrayidx = getelementptr inbounds %"struct.re2::RuneRange", ptr %2, i64 %indvars.iv
  %3 = load i64, ptr %_M_storage.i.i, align 4
  store i64 %3, ptr %arrayidx, align 4
  %call.i6 = tail call noundef ptr @_ZSt18_Rb_tree_incrementPKSt18_Rb_tree_node_base(ptr noundef %it.sroa.0.011) #31
  %cmp.i.not = icmp eq ptr %call.i6, %add.ptr.i.i.i
  br i1 %cmp.i.not, label %for.end.loopexit, label %for.body, !llvm.loop !51

for.end.loopexit:                                 ; preds = %for.body
  %4 = trunc i64 %indvars.iv.next to i32
  br label %for.end

for.end:                                          ; preds = %for.end.loopexit, %entry
  %n.0.lcssa = phi i32 [ 0, %entry ], [ %4, %for.end.loopexit ]
  store i32 %n.0.lcssa, ptr %nranges_.i, align 8
  %nrunes_ = getelementptr inbounds i8, ptr %this, i64 8
  %5 = load i32, ptr %nrunes_, align 8
  store i32 %5, ptr %nrunes_.i, align 4
  %6 = load i32, ptr %this, align 8
  %lower_.i = getelementptr inbounds i8, ptr %this, i64 4
  %7 = load i32, ptr %lower_.i, align 4
  %xor.i = xor i32 %7, %6
  %and.i = and i32 %xor.i, 67108863
  %cmp.i7 = icmp eq i32 %and.i, 0
  %frombool = zext i1 %cmp.i7 to i8
  store i8 %frombool, ptr %call.i, align 8
  ret ptr %call.i
}